target datalayout = "e-m:e-p270:32:32-p271:32:32-p272:64:64-i64:64-i128:128-f80:128-n8:16:32:64-S128"
target triple = "x86_64-pc-linux-gnu"

; Function Attrs: nounwind uwtable
define internal void @Float32_To_Int32_Dither(ptr noundef %0, i32 noundef %1, ptr noundef %2, i32 noundef %3, i32 noundef %4, ptr noundef %5) #0 {
  %7 = alloca ptr, align 8
  %8 = alloca i32, align 4
  %9 = alloca ptr, align 8
  %10 = alloca i32, align 4
  %11 = alloca i32, align 4
  %12 = alloca ptr, align 8
  %13 = alloca ptr, align 8
  %14 = alloca ptr, align 8
  %15 = alloca double, align 8
  %16 = alloca double, align 8
  store ptr %0, ptr %7, align 8, !tbaa !70
  store i32 %1, ptr %8, align 4, !tbaa !71
  store ptr %2, ptr %9, align 8, !tbaa !70
  store i32 %3, ptr %10, align 4, !tbaa !71
  store i32 %4, ptr %11, align 4, !tbaa !71
  store ptr %5, ptr %12, align 8, !tbaa !73
  call void @llvm.lifetime.start.p0(i64 8, ptr %13) #4
  %17 = load ptr, ptr %9, align 8, !tbaa !70
  store ptr %17, ptr %13, align 8, !tbaa !75
  call void @llvm.lifetime.start.p0(i64 8, ptr %14) #4
  %18 = load ptr, ptr %7, align 8, !tbaa !70
  store ptr %18, ptr %14, align 8, !tbaa !77
  br label %19

19:                                               ; preds = %23, %6
  %20 = load i32, ptr %11, align 4, !tbaa !71
  %21 = add i32 %20, -1
  store i32 %21, ptr %11, align 4, !tbaa !71
  %22 = icmp ne i32 %20, 0
  br i1 %22, label %23, label %43

23:                                               ; preds = %19
  call void @llvm.lifetime.start.p0(i64 8, ptr %15) #4
  %24 = load ptr, ptr %12, align 8, !tbaa !73
  %25 = call float @PaUtil_GenerateFloatTriangularDither(ptr noundef %24)
  %26 = fpext float %25 to double
  store double %26, ptr %15, align 8, !tbaa !81
  call void @llvm.lifetime.start.p0(i64 8, ptr %16) #4
  %27 = load ptr, ptr %13, align 8, !tbaa !75
  %28 = load float, ptr %27, align 4, !tbaa !79
  %29 = fpext float %28 to double
  %30 = load double, ptr %15, align 8, !tbaa !81
  %31 = call double @llvm.fmuladd.f64(double %29, double 0x41DFFFFFFF800000, double %30)
  store double %31, ptr %16, align 8, !tbaa !81
  %32 = load double, ptr %16, align 8, !tbaa !81
  %33 = fptosi double %32 to i32
  %34 = load ptr, ptr %14, align 8, !tbaa !77
  store i32 %33, ptr %34, align 4, !tbaa !71
  %35 = load i32, ptr %10, align 4, !tbaa !71
  %36 = load ptr, ptr %13, align 8, !tbaa !75
  %37 = sext i32 %35 to i64
  %38 = getelementptr inbounds float, ptr %36, i64 %37
  store ptr %38, ptr %13, align 8, !tbaa !75
  %39 = load i32, ptr %8, align 4, !tbaa !71
  %40 = load ptr, ptr %14, align 8, !tbaa !77
  %41 = sext i32 %39 to i64
  %42 = getelementptr inbounds i32, ptr %40, i64 %41
  store ptr %42, ptr %14, align 8, !tbaa !77
  call void @llvm.lifetime.end.p0(i64 8, ptr %16) #4
  call void @llvm.lifetime.end.p0(i64 8, ptr %15) #4
  br label %19, !llvm.loop !84

43:                                               ; preds = %19
  call void @llvm.lifetime.end.p0(i64 8, ptr %14) #4
  call void @llvm.lifetime.end.p0(i64 8, ptr %13) #4
  ret void
}