; Function Attrs: nounwind uwtable
define internal void @Float32_To_Int32_Dither(ptr noundef writeonly captures(none) %0, i32 noundef %1, ptr noundef readonly captures(none) %2, i32 noundef %3, i32 noundef %4, ptr noundef %5) #3 {
  %.not13 = icmp eq i32 %4, 0
  br i1 %.not13, label %._crit_edge, label %.lr.ph

.lr.ph:                                           ; preds = %6
  %7 = sext i32 %3 to i64
  %8 = sext i32 %1 to i64
  br label %9

9:                                                ; preds = %.lr.ph, %9
  %.016 = phi i32 [ %4, %.lr.ph ], [ %10, %9 ]
  %.01115 = phi ptr [ %2, %.lr.ph ], [ %17, %9 ]
  %.01214 = phi ptr [ %0, %.lr.ph ], [ %18, %9 ]
  %10 = add i32 %.016, -1
  %11 = tail call float @PaUtil_GenerateFloatTriangularDither(ptr noundef %5) #9
  %12 = fpext float %11 to double
  %13 = load float, ptr %.01115, align 4, !tbaa !68
  %14 = fpext float %13 to double
  %15 = tail call double @llvm.fmuladd.f64(double %14, double 0x41DFFFFFFF800000, double %12)
  %16 = fptosi double %15 to i32
  store i32 %16, ptr %.01214, align 4, !tbaa !70
  %17 = getelementptr inbounds float, ptr %.01115, i64 %7
  %18 = getelementptr inbounds i32, ptr %.01214, i64 %8
  %.not = icmp eq i32 %10, 0
  br i1 %.not, label %._crit_edge, label %9, !llvm.loop !73

._crit_edge:                                      ; preds = %9, %6
  ret void
}